target datalayout = "e-m:e-p270:32:32-p271:32:32-p272:64:64-i64:64-i128:128-f80:128-n8:16:32:64-S128"
target triple = "x86_64-pc-linux-gnu"

%"class.nanobind::object" = type { %"class.nanobind::handle" }
%"class.nanobind::handle" = type { ptr }
%"struct.nanobind::detail::func_data_prelim" = type { [3 x ptr], ptr, ptr, ptr, ptr, i32, i16, i16, ptr, ptr, ptr, [0 x %"struct.nanobind::detail::arg_data"] }
%"struct.nanobind::detail::arg_data" = type { ptr, ptr, ptr, ptr, i8 }
%class.anon.546 = type { i8 }
%class.anon.548 = type { ptr }
%class.anon.550 = type { i8 }
%struct.capture.549 = type { %class.anon.548 }

@.str.137 = private unnamed_addr constant [4 x i8] c"Foo\00", align 1

; Function Attrs: mustprogress nounwind optsize uwtable
define linkonce_odr hidden void @_ZN8nanobind6objectC2ENS_6handleENS_6detail7steal_tE(ptr noundef nonnull align 8 dereferenceable(8) %0, ptr %1) unnamed_addr #2 comdat align 2 {
  %3 = alloca %"class.nanobind::handle", align 8
  %4 = alloca ptr, align 8
  %5 = getelementptr inbounds nuw %"class.nanobind::handle", ptr %3, i32 0, i32 0
  store ptr %1, ptr %5, align 8
  store ptr %0, ptr %4, align 8, !tbaa !40
  %6 = load ptr, ptr %4, align 8
  call void @llvm.memcpy.p0.p0.i64(ptr align 8 %6, ptr align 8 %3, i64 8, i1 false)
  ret void
}

; Function Attrs: inlinehint mustprogress nounwind optsize uwtable
define internal noundef ptr @"_ZZN8nanobind6detail11func_createILb1ELb1ERZZL32nanobind_init_test_functions_extRNS_7module_EENK3$_2clEvEUlvE_NS_3strEJETpTnmJEJEEEP7_objectOT1_PFT2_DpT3_ESt16integer_sequenceImJXspT4_EEEDpRKT5_ENKUlPvPS9_PhNS_9rv_policyEPNS0_12cleanup_listEE_cvPFS9_SN_SO_SP_SQ_SS_EEv"(ptr noundef nonnull align 1 dereferenceable(1) %0) #12 align 2 {
  %2 = alloca ptr, align 8
  store ptr %0, ptr %2, align 8, !tbaa !26
  ret ptr @"_ZZN8nanobind6detail11func_createILb1ELb1ERZZL32nanobind_init_test_functions_extRNS_7module_EENK3$_2clEvEUlvE_NS_3strEJETpTnmJEJEEEP7_objectOT1_PFT2_DpT3_ESt16integer_sequenceImJXspT4_EEEDpRKT5_ENUlPvPS9_PhNS_9rv_policyEPNS0_12cleanup_listEE_8__invokeESN_SO_SP_SQ_SS_"
}

; Function Attrs: alwaysinline mustprogress nounwind optsize uwtable
define linkonce_odr hidden void @_ZNK8nanobind6detail5descrILm9EJEE9put_typesEPPKSt9type_info(ptr noundef nonnull align 1 dereferenceable(10) %0, ptr noundef %1) #8 comdat align 2 {
  %3 = alloca ptr, align 8
  %4 = alloca ptr, align 8
  %5 = alloca i64, align 8
  store ptr %0, ptr %3, align 8, !tbaa !184
  store ptr %1, ptr %4, align 8, !tbaa !138
  call void @llvm.lifetime.start.p0(i64 8, ptr %5) #1
  store i64 0, ptr %5, align 8, !tbaa !29
  %6 = load ptr, ptr %4, align 8, !tbaa !138
  %7 = load i64, ptr %5, align 8, !tbaa !29
  %8 = add i64 %7, 1
  store i64 %8, ptr %5, align 8, !tbaa !29
  %9 = getelementptr inbounds nuw ptr, ptr %6, i64 %7
  store ptr null, ptr %9, align 8, !tbaa !139
  call void @llvm.lifetime.end.p0(i64 8, ptr %5) #1
  ret void
}

; Function Attrs: alwaysinline mustprogress optsize uwtable
define linkonce_odr hidden void @_ZN8nanobind5stealINS_6objectEEET_NS_6handleE(ptr dead_on_unwind noalias writable sret(%"class.nanobind::object") align 8 %0, ptr %1) #6 comdat {
  %3 = alloca ptr, align 8
  %4 = alloca %"class.nanobind::handle", align 8
  %5 = alloca %"class.nanobind::handle", align 8
  store ptr %0, ptr %3, align 8
  %6 = getelementptr inbounds nuw %"class.nanobind::handle", ptr %4, i32 0, i32 0
  store ptr %1, ptr %6, align 8
  call void @llvm.memcpy.p0.p0.i64(ptr align 8 %5, ptr align 8 %4, i64 8, i1 false)
  %7 = getelementptr inbounds nuw %"class.nanobind::handle", ptr %5, i32 0, i32 0
  %8 = load ptr, ptr %7, align 8
  call void @_ZN8nanobind6objectC2ENS_6handleENS_6detail7steal_tE(ptr noundef nonnull align 8 dereferenceable(8) %0, ptr %8) #21
  ret void
}

; Function Attrs: alwaysinline mustprogress nounwind optsize uwtable
define linkonce_odr hidden void @_ZN8nanobind6handleC2EPK7_object(ptr noundef nonnull align 8 dereferenceable(8) %0, ptr noundef %1) unnamed_addr #8 comdat align 2 {
  %3 = alloca ptr, align 8
  %4 = alloca ptr, align 8
  store ptr %0, ptr %3, align 8, !tbaa !20
  store ptr %1, ptr %4, align 8, !tbaa !14
  %5 = load ptr, ptr %3, align 8
  %6 = getelementptr inbounds nuw %"class.nanobind::handle", ptr %5, i32 0, i32 0
  %7 = load ptr, ptr %4, align 8, !tbaa !14
  store ptr %7, ptr %6, align 8, !tbaa !22
  ret void
}

; Function Attrs: alwaysinline mustprogress nounwind optsize uwtable
define internal noundef ptr @"_ZN8nanobind6detail11func_createILb1ELb1ERZZL32nanobind_init_test_functions_extRNS_7module_EENK3$_2clEvEUlvE_NS_3strEJETpTnmJEJEEEP7_objectOT1_PFT2_DpT3_ESt16integer_sequenceImJXspT4_EEEDpRKT5_"(ptr noundef nonnull align 8 dereferenceable(8) %0, ptr noundef %1) #8 {
  %3 = alloca ptr, align 8
  %4 = alloca ptr, align 8
  %5 = alloca i64, align 8
  %6 = alloca i8, align 1
  %7 = alloca i8, align 1
  %8 = alloca i8, align 1
  %9 = alloca i8, align 1
  %10 = alloca i64, align 8
  %11 = alloca i64, align 8
  %12 = alloca i8, align 1
  %13 = alloca i8, align 1
  %14 = alloca i64, align 8
  %15 = alloca [1 x ptr], align 8
  %16 = alloca %"struct.nanobind::detail::func_data_prelim", align 8
  %17 = alloca ptr, align 8
  %18 = alloca %class.anon.550, align 1
  %19 = alloca i64, align 8
  store ptr %0, ptr %3, align 8, !tbaa !26
  store ptr %1, ptr %4, align 8, !tbaa !26
  call void @llvm.lifetime.start.p0(i64 8, ptr %5) #1
  store i64 0, ptr %5, align 8, !tbaa !29
  call void @llvm.lifetime.start.p0(i64 1, ptr %6) #1
  store i8 0, ptr %6, align 1, !tbaa !85
  call void @llvm.lifetime.start.p0(i64 1, ptr %7) #1
  store i8 0, ptr %7, align 1, !tbaa !85
  call void @llvm.lifetime.start.p0(i64 1, ptr %8) #1
  store i8 0, ptr %8, align 1, !tbaa !85
  call void @llvm.lifetime.start.p0(i64 1, ptr %9) #1
  store i8 0, ptr %9, align 1, !tbaa !85
  call void @llvm.lifetime.start.p0(i64 8, ptr %10) #1
  store i64 0, ptr %10, align 8, !tbaa !29
  call void @llvm.lifetime.start.p0(i64 8, ptr %11) #1
  store i64 0, ptr %11, align 8, !tbaa !29
  call void @llvm.lifetime.start.p0(i64 1, ptr %12) #1
  store i8 0, ptr %12, align 1, !tbaa !85
  call void @llvm.lifetime.start.p0(i64 1, ptr %13) #1
  store i8 0, ptr %13, align 1, !tbaa !85
  call void @llvm.lifetime.start.p0(i64 8, ptr %14) #1
  store i64 0, ptr %14, align 8, !tbaa !29
  call void @llvm.lifetime.start.p0(i64 8, ptr %15) #1
  %20 = getelementptr inbounds [1 x ptr], ptr %15, i64 0, i64 0
  call void @_ZNK8nanobind6detail5descrILm9EJEE9put_typesEPPKSt9type_info(ptr noundef nonnull align 1 dereferenceable(10) @"_ZZN8nanobind6detail11func_createILb1ELb1ERZZL32nanobind_init_test_functions_extRNS_7module_EENK3$_2clEvEUlvE_NS_3strEJETpTnmJEJEEEP7_objectOT1_PFT2_DpT3_ESt16integer_sequenceImJXspT4_EEEDpRKT5_E5descr", ptr noundef %20) #21
  call void @llvm.lifetime.start.p0(i64 88, ptr %16) #1
  %21 = getelementptr inbounds nuw %"struct.nanobind::detail::func_data_prelim", ptr %16, i32 0, i32 5
  store i32 32768, ptr %21, align 8, !tbaa !125
  call void @llvm.lifetime.start.p0(i64 8, ptr %17) #1
  %22 = getelementptr inbounds nuw %"struct.nanobind::detail::func_data_prelim", ptr %16, i32 0, i32 0
  %23 = getelementptr inbounds [3 x ptr], ptr %22, i64 0, i64 0
  store ptr %23, ptr %17, align 8, !tbaa !689
  %24 = load ptr, ptr %17, align 8, !tbaa !689
  %25 = getelementptr inbounds nuw %struct.capture.549, ptr %24, i32 0, i32 0
  %26 = load ptr, ptr %3, align 8, !tbaa !26
  call void @llvm.memcpy.p0.p0.i64(ptr align 8 %25, ptr align 8 %26, i64 8, i1 false), !tbaa.struct !691
  call void @llvm.lifetime.end.p0(i64 8, ptr %17) #1
  call void @llvm.lifetime.start.p0(i64 1, ptr %18) #1
  %27 = call noundef ptr @"_ZZN8nanobind6detail11func_createILb1ELb1ERZZL32nanobind_init_test_functions_extRNS_7module_EENK3$_2clEvEUlvE_NS_3strEJETpTnmJEJEEEP7_objectOT1_PFT2_DpT3_ESt16integer_sequenceImJXspT4_EEEDpRKT5_ENKUlPvPS9_PhNS_9rv_policyEPNS0_12cleanup_listEE_cvPFS9_SN_SO_SP_SQ_SS_EEv"(ptr noundef nonnull align 1 dereferenceable(1) %18) #20
  %28 = getelementptr inbounds nuw %"struct.nanobind::detail::func_data_prelim", ptr %16, i32 0, i32 2
  store ptr %27, ptr %28, align 8, !tbaa !131
  call void @llvm.lifetime.end.p0(i64 1, ptr %18) #1
  %29 = getelementptr inbounds nuw %"struct.nanobind::detail::func_data_prelim", ptr %16, i32 0, i32 3
  store ptr @"_ZZN8nanobind6detail11func_createILb1ELb1ERZZL32nanobind_init_test_functions_extRNS_7module_EENK3$_2clEvEUlvE_NS_3strEJETpTnmJEJEEEP7_objectOT1_PFT2_DpT3_ESt16integer_sequenceImJXspT4_EEEDpRKT5_E5descr", ptr %29, align 8, !tbaa !132
  %30 = getelementptr inbounds [1 x ptr], ptr %15, i64 0, i64 0
  %31 = getelementptr inbounds nuw %"struct.nanobind::detail::func_data_prelim", ptr %16, i32 0, i32 4
  store ptr %30, ptr %31, align 8, !tbaa !133
  %32 = getelementptr inbounds nuw %"struct.nanobind::detail::func_data_prelim", ptr %16, i32 0, i32 6
  store i16 0, ptr %32, align 4, !tbaa !134
  %33 = getelementptr inbounds nuw %"struct.nanobind::detail::func_data_prelim", ptr %16, i32 0, i32 7
  store i16 0, ptr %33, align 2, !tbaa !135
  call void @llvm.lifetime.start.p0(i64 8, ptr %19) #1
  store i64 0, ptr %19, align 8, !tbaa !29
  %34 = call noundef ptr @_ZN8nanobind6detail11nb_func_newEPKv(ptr noundef %16) #20
  call void @llvm.lifetime.end.p0(i64 8, ptr %19) #1
  call void @llvm.lifetime.end.p0(i64 88, ptr %16) #1
  call void @llvm.lifetime.end.p0(i64 8, ptr %15) #1
  call void @llvm.lifetime.end.p0(i64 8, ptr %14) #1
  call void @llvm.lifetime.end.p0(i64 1, ptr %13) #1
  call void @llvm.lifetime.end.p0(i64 1, ptr %12) #1
  call void @llvm.lifetime.end.p0(i64 8, ptr %11) #1
  call void @llvm.lifetime.end.p0(i64 8, ptr %10) #1
  call void @llvm.lifetime.end.p0(i64 1, ptr %9) #1
  call void @llvm.lifetime.end.p0(i64 1, ptr %8) #1
  call void @llvm.lifetime.end.p0(i64 1, ptr %7) #1
  call void @llvm.lifetime.end.p0(i64 1, ptr %6) #1
  call void @llvm.lifetime.end.p0(i64 8, ptr %5) #1
  ret ptr %34
}

; Function Attrs: noinline noreturn nounwind optsize uwtable
define linkonce_odr hidden void @__clang_call_terminate(ptr noundef %0) #10 comdat {
  %2 = call ptr @__cxa_begin_catch(ptr %0) #1
  call void @_ZSt9terminatev() #22
  unreachable
}

; Function Attrs: mustprogress optsize uwtable
define linkonce_odr hidden ptr @_ZN8nanobind6object7releaseEv(ptr noundef nonnull align 8 dereferenceable(8) %0) #3 comdat align 2 {
  %2 = alloca %"class.nanobind::handle", align 8
  %3 = alloca ptr, align 8
  store ptr %0, ptr %3, align 8, !tbaa !40
  %4 = load ptr, ptr %3, align 8
  %5 = getelementptr inbounds nuw %"class.nanobind::handle", ptr %4, i32 0, i32 0
  %6 = load ptr, ptr %5, align 8, !tbaa !22
  call void @_ZN8nanobind6handleC2EPK7_object(ptr noundef nonnull align 8 dereferenceable(8) %2, ptr noundef %6) #21
  %7 = getelementptr inbounds nuw %"class.nanobind::handle", ptr %4, i32 0, i32 0
  store ptr null, ptr %7, align 8, !tbaa !22
  %8 = getelementptr inbounds nuw %"class.nanobind::handle", ptr %2, i32 0, i32 0
  %9 = load ptr, ptr %8, align 8
  ret ptr %9
}

; Function Attrs: alwaysinline mustprogress optsize uwtable
define internal void @"_ZN8nanobind12cpp_functionIvRZZL32nanobind_init_test_functions_extRNS_7module_EENK3$_2clEvEUlvE_JETnNSt9enable_ifIXsr6detailE11is_lambda_vINSt16remove_referenceIT0_E4typeEEEiE4typeELi0EEENS_6objectEOS8_DpRKT1_"(ptr dead_on_unwind noalias writable sret(%"class.nanobind::object") align 8 %0, ptr noundef nonnull align 8 dereferenceable(8) %1) #6 {
  %3 = alloca ptr, align 8
  %4 = alloca ptr, align 8
  %5 = alloca %"class.nanobind::handle", align 8
  store ptr %0, ptr %3, align 8
  store ptr %1, ptr %4, align 8, !tbaa !26
  %6 = load ptr, ptr %4, align 8, !tbaa !26
  %7 = call noundef ptr @"_ZN8nanobind6detail11func_createILb1ELb1ERZZL32nanobind_init_test_functions_extRNS_7module_EENK3$_2clEvEUlvE_NS_3strEJETpTnmJEJEEEP7_objectOT1_PFT2_DpT3_ESt16integer_sequenceImJXspT4_EEEDpRKT5_"(ptr noundef nonnull align 8 dereferenceable(8) %6, ptr noundef null) #21
  call void @_ZN8nanobind6handleC2EPK7_object(ptr noundef nonnull align 8 dereferenceable(8) %5, ptr noundef %7) #21
  %8 = getelementptr inbounds nuw %"class.nanobind::handle", ptr %5, i32 0, i32 0
  %9 = load ptr, ptr %8, align 8
  call void @_ZN8nanobind5stealINS_6objectEEET_NS_6handleE(ptr dead_on_unwind writable sret(%"class.nanobind::object") align 8 %0, ptr %9) #21
  ret void
}

; Function Attrs: mustprogress nounwind optsize uwtable
define linkonce_odr hidden void @_ZN8nanobind6objectD2Ev(ptr noundef nonnull align 8 dereferenceable(8) %0) unnamed_addr #2 comdat align 2 {
  %2 = alloca ptr, align 8
  store ptr %0, ptr %2, align 8, !tbaa !40
  %3 = load ptr, ptr %2, align 8
  %4 = call noundef nonnull align 8 dereferenceable(8) ptr @_ZNKR8nanobind6handle7dec_refEv(ptr noundef nonnull align 8 dereferenceable(8) %3) #20
  ret void
}

; Function Attrs: alwaysinline mustprogress nounwind optsize uwtable
define linkonce_odr hidden noundef ptr @_ZNK8nanobind6handle3ptrEv(ptr noundef nonnull align 8 dereferenceable(8) %0) #8 comdat align 2 {
  %2 = alloca ptr, align 8
  store ptr %0, ptr %2, align 8, !tbaa !20
  %3 = load ptr, ptr %2, align 8
  %4 = getelementptr inbounds nuw %"class.nanobind::handle", ptr %3, i32 0, i32 0
  %5 = load ptr, ptr %4, align 8, !tbaa !22
  ret ptr %5
}

; Function Attrs: mustprogress nounwind optsize uwtable
define linkonce_odr hidden ptr @_ZN8nanobind6detail11type_casterINS_6objectEiE8from_cppEOS2_NS_9rv_policyEPNS0_12cleanup_listE(ptr noundef nonnull align 8 dereferenceable(8) %0, i32 noundef %1, ptr noundef %2) #2 comdat align 2 personality ptr @__gxx_personality_v0 {
  %4 = alloca %"class.nanobind::handle", align 8
  %5 = alloca ptr, align 8
  %6 = alloca i32, align 4
  %7 = alloca ptr, align 8
  store ptr %0, ptr %5, align 8, !tbaa !40
  store i32 %1, ptr %6, align 4, !tbaa !113
  store ptr %2, ptr %7, align 8, !tbaa !115
  %8 = load ptr, ptr %5, align 8, !tbaa !40
  %9 = invoke ptr @_ZN8nanobind6object7releaseEv(ptr noundef nonnull align 8 dereferenceable(8) %8) #21
          to label %10 unwind label %14

10:                                               ; preds = %3
  %11 = getelementptr inbounds nuw %"class.nanobind::handle", ptr %4, i32 0, i32 0
  store ptr %9, ptr %11, align 8
  %12 = getelementptr inbounds nuw %"class.nanobind::handle", ptr %4, i32 0, i32 0
  %13 = load ptr, ptr %12, align 8
  ret ptr %13

14:                                               ; preds = %3
  %15 = landingpad { ptr, i32 }
          catch ptr null
  %16 = extractvalue { ptr, i32 } %15, 0
  call void @__clang_call_terminate(ptr %16) #22
  unreachable
}

; Function Attrs: inlinehint mustprogress optsize uwtable
define internal void @"_ZZL32nanobind_init_test_functions_extRN8nanobind7module_EENK3$_2clEv"(ptr dead_on_unwind noalias writable sret(%"class.nanobind::object") align 8 %0, ptr noundef nonnull align 1 dereferenceable(1) %1) #11 align 2 {
  %3 = alloca ptr, align 8
  %4 = alloca ptr, align 8
  %5 = alloca ptr, align 8
  %6 = alloca %class.anon.548, align 8
  store ptr %0, ptr %3, align 8
  store ptr %1, ptr %4, align 8, !tbaa !26
  call void @llvm.lifetime.start.p0(i64 8, ptr %5) #1
  store ptr @.str.137, ptr %5, align 8, !tbaa !57
  call void @llvm.lifetime.start.p0(i64 8, ptr %6) #1
  %7 = getelementptr inbounds nuw %class.anon.548, ptr %6, i32 0, i32 0
  %8 = load ptr, ptr %5, align 8, !tbaa !57
  store ptr %8, ptr %7, align 8, !tbaa !687
  call void @"_ZN8nanobind12cpp_functionIvRZZL32nanobind_init_test_functions_extRNS_7module_EENK3$_2clEvEUlvE_JETnNSt9enable_ifIXsr6detailE11is_lambda_vINSt16remove_referenceIT0_E4typeEEEiE4typeELi0EEENS_6objectEOS8_DpRKT1_"(ptr dead_on_unwind writable sret(%"class.nanobind::object") align 8 %0, ptr noundef nonnull align 8 dereferenceable(8) %6) #21
  call void @llvm.lifetime.end.p0(i64 8, ptr %6) #1
  call void @llvm.lifetime.end.p0(i64 8, ptr %5) #1
  ret void
}

; Function Attrs: alwaysinline mustprogress optsize uwtable
define internal noundef ptr @"_ZZN8nanobind6detail11func_createILb0ELb1EZL32nanobind_init_test_functions_extRNS_7module_EE3$_2NS_6objectEJETpTnmJEJNS_5scopeENS_4nameEEEEP7_objectOT1_PFT2_DpT3_ESt16integer_sequenceImJXspT4_EEEDpRKT5_ENKUlPvPS9_PhNS_9rv_policyEPNS0_12cleanup_listEE_clESN_SO_SP_SQ_SS_"(ptr noundef nonnull align 1 dereferenceable(1) %0, ptr noundef %1, ptr noundef %2, ptr noundef %3, i32 noundef %4, ptr noundef %5) #6 align 2 {
  %7 = alloca ptr, align 8
  %8 = alloca ptr, align 8
  %9 = alloca ptr, align 8
  %10 = alloca ptr, align 8
  %11 = alloca i32, align 4
  %12 = alloca ptr, align 8
  %13 = alloca ptr, align 8
  %14 = alloca ptr, align 8
  %15 = alloca %"class.nanobind::handle", align 8
  %16 = alloca %"class.nanobind::object", align 8
  store ptr %0, ptr %7, align 8, !tbaa !26
  store ptr %1, ptr %8, align 8, !tbaa !26
  store ptr %2, ptr %9, align 8, !tbaa !146
  store ptr %3, ptr %10, align 8, !tbaa !57
  store i32 %4, ptr %11, align 4, !tbaa !113
  store ptr %5, ptr %12, align 8, !tbaa !115
  call void @llvm.lifetime.start.p0(i64 8, ptr %13) #1
  %17 = load ptr, ptr %8, align 8, !tbaa !26
  store ptr %17, ptr %13, align 8, !tbaa !683
  call void @llvm.lifetime.start.p0(i64 8, ptr %14) #1
  call void @llvm.lifetime.start.p0(i64 8, ptr %15) #1
  call void @llvm.lifetime.start.p0(i64 8, ptr %16) #1
  %18 = load ptr, ptr %13, align 8, !tbaa !683
  call void @"_ZZL32nanobind_init_test_functions_extRN8nanobind7module_EENK3$_2clEv"(ptr dead_on_unwind writable sret(%"class.nanobind::object") align 8 %16, ptr noundef nonnull align 1 dereferenceable(1) %18) #21
  %19 = load i32, ptr %11, align 4, !tbaa !113
  %20 = load ptr, ptr %12, align 8, !tbaa !115
  %21 = call ptr @_ZN8nanobind6detail11type_casterINS_6objectEiE8from_cppEOS2_NS_9rv_policyEPNS0_12cleanup_listE(ptr noundef nonnull align 8 dereferenceable(8) %16, i32 noundef %19, ptr noundef %20) #20
  %22 = getelementptr inbounds nuw %"class.nanobind::handle", ptr %15, i32 0, i32 0
  store ptr %21, ptr %22, align 8
  %23 = call noundef ptr @_ZNK8nanobind6handle3ptrEv(ptr noundef nonnull align 8 dereferenceable(8) %15) #21
  store ptr %23, ptr %14, align 8, !tbaa !14
  call void @_ZN8nanobind6objectD2Ev(ptr noundef nonnull align 8 dereferenceable(8) %16) #20
  call void @llvm.lifetime.end.p0(i64 8, ptr %16) #1
  call void @llvm.lifetime.end.p0(i64 8, ptr %15) #1
  %24 = load ptr, ptr %14, align 8, !tbaa !14
  call void @llvm.lifetime.end.p0(i64 8, ptr %14) #1
  call void @llvm.lifetime.end.p0(i64 8, ptr %13) #1
  ret ptr %24
}

; Function Attrs: inlinehint mustprogress optsize uwtable
define internal noundef ptr @"_ZZN8nanobind6detail11func_createILb0ELb1EZL32nanobind_init_test_functions_extRNS_7module_EE3$_2NS_6objectEJETpTnmJEJNS_5scopeENS_4nameEEEEP7_objectOT1_PFT2_DpT3_ESt16integer_sequenceImJXspT4_EEEDpRKT5_ENUlPvPS9_PhNS_9rv_policyEPNS0_12cleanup_listEE_8__invokeESN_SO_SP_SQ_SS_"(ptr noundef %0, ptr noundef %1, ptr noundef %2, i32 noundef %3, ptr noundef %4) #11 align 2 {
  %6 = alloca ptr, align 8
  %7 = alloca ptr, align 8
  %8 = alloca ptr, align 8
  %9 = alloca i32, align 4
  %10 = alloca ptr, align 8
  %11 = alloca %class.anon.546, align 1
  store ptr %0, ptr %6, align 8, !tbaa !26
  store ptr %1, ptr %7, align 8, !tbaa !146
  store ptr %2, ptr %8, align 8, !tbaa !57
  store i32 %3, ptr %9, align 4, !tbaa !113
  store ptr %4, ptr %10, align 8, !tbaa !115
  %12 = load ptr, ptr %6, align 8, !tbaa !26
  %13 = load ptr, ptr %7, align 8, !tbaa !146
  %14 = load ptr, ptr %8, align 8, !tbaa !57
  %15 = load i32, ptr %9, align 4, !tbaa !113
  %16 = load ptr, ptr %10, align 8, !tbaa !115
  %17 = call noundef ptr @"_ZZN8nanobind6detail11func_createILb0ELb1EZL32nanobind_init_test_functions_extRNS_7module_EE3$_2NS_6objectEJETpTnmJEJNS_5scopeENS_4nameEEEEP7_objectOT1_PFT2_DpT3_ESt16integer_sequenceImJXspT4_EEEDpRKT5_ENKUlPvPS9_PhNS_9rv_policyEPNS0_12cleanup_listEE_clESN_SO_SP_SQ_SS_"(ptr noundef nonnull align 1 dereferenceable(1) %11, ptr noundef %12, ptr noundef %13, ptr noundef %14, i32 noundef %15, ptr noundef %16) #21
  ret ptr %17
}