; Function Attrs: inlinehint mustprogress nounwind optsize uwtable
define internal noundef ptr @"_ZZN8nanobind6detail11func_createILb0ELb1EZL32nanobind_init_test_functions_extRNS_7module_EE3$_2NS_6objectEJETpTnmJEJNS_5scopeENS_4nameEEEEP7_objectOT1_PFT2_DpT3_ESt16integer_sequenceImJXspT4_EEEDpRKT5_ENUlPvPS9_PhNS_9rv_policyEPNS0_12cleanup_listEE_8__invokeESN_SO_SP_SQ_SS_"(ptr readnone captures(none) %0, ptr readnone captures(none) %1, ptr readnone captures(none) %2, i32 %3, ptr readnone captures(none) %4) #17 align 2 personality ptr @__gxx_personality_v0 {
  %6 = alloca [1 x ptr], align 8
  %7 = alloca %"struct.nanobind::detail::func_data_prelim", align 8
  %8 = alloca %"class.nanobind::object", align 8
  call void @llvm.lifetime.start.p0(i64 8, ptr nonnull %8) #27
  call void @llvm.lifetime.start.p0(i64 8, ptr nonnull %6) #27, !noalias !334
  store ptr null, ptr %6, align 8, !tbaa !20, !noalias !334
  call void @llvm.lifetime.start.p0(i64 88, ptr nonnull %7) #27, !noalias !334
  %9 = getelementptr inbounds nuw i8, ptr %7, i64 56
  store i32 32768, ptr %9, align 8, !tbaa !34, !noalias !334
  store i64 ptrtoint (ptr @.str.137 to i64), ptr %7, align 8, !tbaa !40, !noalias !334
  %10 = getelementptr inbounds nuw i8, ptr %7, i64 32
  store ptr @"_ZZN8nanobind6detail11func_createILb1ELb1ERZZL32nanobind_init_test_functions_extRNS_7module_EENK3$_2clEvEUlvE_NS_3strEJETpTnmJEJEEEP7_objectOT1_PFT2_DpT3_ESt16integer_sequenceImJXspT4_EEEDpRKT5_ENUlPvPS9_PhNS_9rv_policyEPNS0_12cleanup_listEE_8__invokeESN_SO_SP_SQ_SS_", ptr %10, align 8, !tbaa !22, !noalias !334
  %11 = getelementptr inbounds nuw i8, ptr %7, i64 40
  store ptr @"_ZZN8nanobind6detail11func_createILb1ELb1ERZZL32nanobind_init_test_functions_extRNS_7module_EENK3$_2clEvEUlvE_NS_3strEJETpTnmJEJEEEP7_objectOT1_PFT2_DpT3_ESt16integer_sequenceImJXspT4_EEEDpRKT5_E5descr", ptr %11, align 8, !tbaa !28, !noalias !334
  %12 = getelementptr inbounds nuw i8, ptr %7, i64 48
  store ptr %6, ptr %12, align 8, !tbaa !29, !noalias !334
  %13 = getelementptr inbounds nuw i8, ptr %7, i64 60
  store i16 0, ptr %13, align 4, !tbaa !30, !noalias !334
  %14 = getelementptr inbounds nuw i8, ptr %7, i64 62
  store i16 0, ptr %14, align 2, !tbaa !31, !noalias !334
  %15 = call noundef ptr @_ZN8nanobind6detail11nb_func_newEPKv(ptr noundef nonnull %7) #31, !noalias !334
  call void @llvm.lifetime.end.p0(i64 88, ptr nonnull %7) #27, !noalias !334
  call void @llvm.lifetime.end.p0(i64 8, ptr nonnull %6) #27, !noalias !334
  store ptr null, ptr %8, align 8, !tbaa !44
  %16 = call noundef nonnull align 8 dereferenceable(8) ptr @_ZNKR8nanobind6handle7dec_refEv(ptr noundef nonnull align 8 dereferenceable(8) %8) #31
  call void @llvm.lifetime.end.p0(i64 8, ptr nonnull %8) #27
  ret ptr %15
}